; Function Attrs: mustprogress nofree nounwind willreturn memory(read, argmem: readwrite, inaccessiblemem: none) uwtable
define noundef zeroext i1 @_ZN7testing8internal10SkipPrefixEPKcPS2_(ptr noundef readonly captures(none) %0, ptr noundef captures(none) %1) local_unnamed_addr #35 {
  %3 = tail call i64 @strlen(ptr noundef nonnull dereferenceable(1) %0) #62
  %4 = load ptr, ptr %1, align 8, !tbaa !461
  %5 = tail call i32 @strncmp(ptr noundef %4, ptr noundef nonnull %0, i64 noundef %3) #62
  %6 = icmp eq i32 %5, 0
  br i1 %6, label %7, label %9

7:                                                ; preds = %2
  %8 = getelementptr inbounds nuw i8, ptr %4, i64 %3
  store ptr %8, ptr %1, align 8, !tbaa !461
  br label %9

9:                                                ; preds = %2, %7
  ret i1 %6
}